(dp1
S'failed'
p2
(lp3
S'6'
asS'source_names'
p4
(lp5
S'.'
asS'ids'
p6
(dp7
I1
(S'/home/noitapicname/.qgis2/python/plugins/HandGestures/test/test_hand_gestures_dockwidget.py'
S'HandGestures.test.test_hand_gestures_dockwidget'
p8
S'HandGesturesDockWidgetTest.test_dockwidget_ok'
tp9
sI2
(S'/home/noitapicname/.qgis2/python/plugins/HandGestures/test/test_init.py'
S'HandGestures.test.test_init'
p10
S'TestInit.test_read_init'
tp11
sI3
(S'/home/noitapicname/.qgis2/python/plugins/HandGestures/test/test_qgis_environment.py'
S'HandGestures.test.test_qgis_environment'
p12
S'QGISTest.test_projection'
tp13
sI4
(S'/home/noitapicname/.qgis2/python/plugins/HandGestures/test/test_qgis_environment.py'
g12
S'QGISTest.test_qgis_environment'
tp14
sI5
(S'/home/noitapicname/.qgis2/python/plugins/HandGestures/test/test_resources.py'
S'HandGestures.test.test_resources'
p15
S'HandGesturesDialogTest.test_icon_png'
tp16
sI6
(S'/home/noitapicname/.qgis2/python/plugins/HandGestures/test/test_translations.py'
S'HandGestures.test.test_translations'
p17
S'SafeTranslationsTest.test_qgis_translations'
tp18
ss.